; Function Attrs: mustprogress nofree norecurse nosync nounwind willreturn memory(read, inaccessiblemem: none) uwtable
define hidden noundef zeroext i1 @_ZNK14expr2subpaving6is_varEP4expr(ptr nocapture noundef nonnull readonly align 8 dereferenceable(8) %this, ptr nocapture noundef readonly %t) local_unnamed_addr #6 align 2 {
entry:
  %0 = load ptr, ptr %this, align 8
  %m_expr2var.i = getelementptr inbounds i8, ptr %0, i64 40
  %1 = load ptr, ptr %m_expr2var.i, align 8
  %m_id2map.i.i = getelementptr inbounds i8, ptr %1, i64 8
  %2 = load ptr, ptr %m_id2map.i.i, align 8
  %cmp.i.i.i.i = icmp eq ptr %2, null
  br i1 %cmp.i.i.i.i, label %_ZNK14expr2subpaving3imp6is_varEP4expr.exit, label %_ZNK6vectorIjLb0EjE3getEjRKj.exit.i.i

_ZNK6vectorIjLb0EjE3getEjRKj.exit.i.i:            ; preds = %entry
  %3 = load i32, ptr %t, align 4
  %arrayidx.i.i.i.i = getelementptr inbounds i8, ptr %2, i64 -4
  %4 = load i32, ptr %arrayidx.i.i.i.i, align 4
  %cmp.not.i.i.i = icmp ugt i32 %4, %3
  br i1 %cmp.not.i.i.i, label %_ZNK6vectorIjLb0EjE3getEjRKj.exit.then.i.i, label %_ZNK14expr2subpaving3imp6is_varEP4expr.exit

_ZNK6vectorIjLb0EjE3getEjRKj.exit.then.i.i:       ; preds = %_ZNK6vectorIjLb0EjE3getEjRKj.exit.i.i
  %idxprom.i.i.i = zext i32 %3 to i64
  %arrayidx.i.i.i = getelementptr inbounds i32, ptr %2, i64 %idxprom.i.i.i
  %.then.val.i.i = load i32, ptr %arrayidx.i.i.i, align 4
  %5 = icmp ne i32 %.then.val.i.i, -1
  br label %_ZNK14expr2subpaving3imp6is_varEP4expr.exit

_ZNK14expr2subpaving3imp6is_varEP4expr.exit:      ; preds = %entry, %_ZNK6vectorIjLb0EjE3getEjRKj.exit.i.i, %_ZNK6vectorIjLb0EjE3getEjRKj.exit.then.i.i
  %cmp.i.i = phi i1 [ %5, %_ZNK6vectorIjLb0EjE3getEjRKj.exit.then.i.i ], [ false, %_ZNK6vectorIjLb0EjE3getEjRKj.exit.i.i ], [ false, %entry ]
  ret i1 %cmp.i.i
}